target datalayout = "e-m:e-p270:32:32-p271:32:32-p272:64:64-i64:64-i128:128-f80:128-n8:16:32:64-S128"
target triple = "x86_64-pc-linux-gnu"

%struct._packet_info = type { ptr, ptr, i32, i32, %struct.nstime_t, %struct.nstime_t, %struct.nstime_t, i8, ptr, ptr, ptr, ptr, %struct._address, %struct._address, %struct._address, %struct._address, %struct._address, %struct._address, i32, ptr, i8, [3 x i8], %struct.anon, i32, i32, i32, i32, ptr, i8, ptr, ptr, i16, i16, i32, i32, i16, i32, i32, ptr, ptr, ptr, i8, i8, i16, i16, i16, i32, i16, i16, ptr, ptr, ptr, ptr, ptr, i32, i32 }
%struct.nstime_t = type { i64, i32 }
%struct._address = type { i32, i32, ptr, ptr }
%struct.anon = type { i8, [3 x i8] }

@hf_srvloc_item = internal global i32 0, align 4
@ett_srvloc_attr = internal global i32 0, align 4
@.str.284 = private unnamed_addr constant [12 x i8] c"Item %d: %s\00", align 1

; Function Attrs: null_pointer_is_valid sspstrong uwtable
define internal void @attr_list2(ptr noundef %0, ptr noundef %1, i32 noundef %2, ptr noundef %3, i32 noundef %4, i32 noundef %5, i16 noundef zeroext %6) #0 {
  %8 = alloca ptr, align 8
  %9 = alloca ptr, align 8
  %10 = alloca i32, align 4
  %11 = alloca ptr, align 8
  %12 = alloca i32, align 4
  %13 = alloca i32, align 4
  %14 = alloca i16, align 2
  %15 = alloca ptr, align 8
  %16 = alloca i8, align 1
  %17 = alloca i32, align 4
  %18 = alloca i32, align 4
  %19 = alloca ptr, align 8
  %20 = alloca ptr, align 8
  store ptr %0, ptr %8, align 8
  store ptr %1, ptr %9, align 8
  store i32 %2, ptr %10, align 4
  store ptr %3, ptr %11, align 8
  store i32 %4, ptr %12, align 4
  store i32 %5, ptr %13, align 4
  store i16 %6, ptr %14, align 2
  call void @llvm.lifetime.start.p0(i64 8, ptr %15) #7
  call void @llvm.lifetime.start.p0(i64 1, ptr %16) #7
  call void @llvm.lifetime.start.p0(i64 4, ptr %17) #7
  call void @llvm.lifetime.start.p0(i64 4, ptr %18) #7
  call void @llvm.lifetime.start.p0(i64 8, ptr %19) #7
  call void @llvm.lifetime.start.p0(i64 8, ptr %20) #7
  %21 = load ptr, ptr %9, align 8
  %22 = load i32, ptr %10, align 4
  %23 = load ptr, ptr %11, align 8
  %24 = load i32, ptr %12, align 4
  %25 = load i32, ptr %13, align 4
  %26 = call ptr @proto_tree_add_item(ptr noundef %21, i32 noundef %22, ptr noundef %23, i32 noundef %24, i32 noundef %25, i32 noundef 0)
  store ptr %26, ptr %19, align 8
  %27 = load ptr, ptr %19, align 8
  %28 = load i32, ptr @ett_srvloc_attr, align 4
  %29 = call ptr @proto_item_add_subtree(ptr noundef %27, i32 noundef %28)
  store ptr %29, ptr %20, align 8
  %30 = load ptr, ptr %8, align 8
  %31 = getelementptr inbounds nuw %struct._packet_info, ptr %30, i32 0, i32 51
  %32 = load ptr, ptr %31, align 8
  %33 = load ptr, ptr %11, align 8
  %34 = load i32, ptr %12, align 4
  %35 = load i32, ptr %13, align 4
  %36 = call ptr @tvb_get_string_enc(ptr noundef %32, ptr noundef %33, i32 noundef %34, i32 noundef %35, i32 noundef 0)
  store ptr %36, ptr %15, align 8
  store i32 0, ptr %18, align 4
  store i32 0, ptr %17, align 4
  %37 = load ptr, ptr %15, align 8
  %38 = load i32, ptr %17, align 4
  %39 = zext i32 %38 to i64
  %40 = getelementptr i8, ptr %37, i64 %39
  %41 = load i8, ptr %40, align 1
  store i8 %41, ptr %16, align 1
  br label %42

42:                                               ; preds = %87, %7
  %43 = load i8, ptr %16, align 1
  %44 = icmp ne i8 %43, 0
  br i1 %44, label %45, label %88

45:                                               ; preds = %42
  %46 = load i8, ptr %16, align 1
  %47 = zext i8 %46 to i32
  %48 = icmp eq i32 %47, 44
  br i1 %48, label %49, label %79

49:                                               ; preds = %45
  %50 = load i32, ptr %18, align 4
  %51 = add i32 %50, 1
  store i32 %51, ptr %18, align 4
  %52 = load ptr, ptr %15, align 8
  %53 = load i32, ptr %17, align 4
  %54 = zext i32 %53 to i64
  %55 = getelementptr i8, ptr %52, i64 %54
  store i8 0, ptr %55, align 1
  %56 = load ptr, ptr %20, align 8
  %57 = load i32, ptr @hf_srvloc_item, align 4
  %58 = load ptr, ptr %11, align 8
  %59 = load i32, ptr %12, align 4
  %60 = load i32, ptr %17, align 4
  %61 = load ptr, ptr %15, align 8
  %62 = load i32, ptr %18, align 4
  %63 = load ptr, ptr %15, align 8
  %64 = call ptr (ptr, i32, ptr, i32, i32, ptr, ptr, ...) @proto_tree_add_string_format(ptr noundef %56, i32 noundef %57, ptr noundef %58, i32 noundef %59, i32 noundef %60, ptr noundef %61, ptr noundef @.str.284, i32 noundef %62, ptr noundef %63)
  %65 = load i32, ptr %17, align 4
  %66 = add i32 %65, 1
  %67 = load i32, ptr %12, align 4
  %68 = add i32 %67, %66
  store i32 %68, ptr %12, align 4
  %69 = load i32, ptr %17, align 4
  %70 = add i32 %69, 1
  %71 = load ptr, ptr %15, align 8
  %72 = zext i32 %70 to i64
  %73 = getelementptr i8, ptr %71, i64 %72
  store ptr %73, ptr %15, align 8
  store i32 0, ptr %17, align 4
  %74 = load ptr, ptr %15, align 8
  %75 = load i32, ptr %17, align 4
  %76 = zext i32 %75 to i64
  %77 = getelementptr i8, ptr %74, i64 %76
  %78 = load i8, ptr %77, align 1
  store i8 %78, ptr %16, align 1
  br label %87

79:                                               ; preds = %45
  %80 = load i32, ptr %17, align 4
  %81 = add i32 %80, 1
  store i32 %81, ptr %17, align 4
  %82 = load ptr, ptr %15, align 8
  %83 = load i32, ptr %17, align 4
  %84 = zext i32 %83 to i64
  %85 = getelementptr i8, ptr %82, i64 %84
  %86 = load i8, ptr %85, align 1
  store i8 %86, ptr %16, align 1
  br label %87

87:                                               ; preds = %79, %49
  br label %42, !llvm.loop !20

88:                                               ; preds = %42
  %89 = load i32, ptr %17, align 4
  %90 = icmp ne i32 %89, 0
  br i1 %90, label %91, label %103

91:                                               ; preds = %88
  %92 = load i32, ptr %18, align 4
  %93 = add i32 %92, 1
  store i32 %93, ptr %18, align 4
  %94 = load ptr, ptr %20, align 8
  %95 = load i32, ptr @hf_srvloc_item, align 4
  %96 = load ptr, ptr %11, align 8
  %97 = load i32, ptr %12, align 4
  %98 = load i32, ptr %17, align 4
  %99 = load ptr, ptr %15, align 8
  %100 = load i32, ptr %18, align 4
  %101 = load ptr, ptr %15, align 8
  %102 = call ptr (ptr, i32, ptr, i32, i32, ptr, ptr, ...) @proto_tree_add_string_format(ptr noundef %94, i32 noundef %95, ptr noundef %96, i32 noundef %97, i32 noundef %98, ptr noundef %99, ptr noundef @.str.284, i32 noundef %100, ptr noundef %101)
  br label %103

103:                                              ; preds = %91, %88
  call void @llvm.lifetime.end.p0(i64 8, ptr %20) #7
  call void @llvm.lifetime.end.p0(i64 8, ptr %19) #7
  call void @llvm.lifetime.end.p0(i64 4, ptr %18) #7
  call void @llvm.lifetime.end.p0(i64 4, ptr %17) #7
  call void @llvm.lifetime.end.p0(i64 1, ptr %16) #7
  call void @llvm.lifetime.end.p0(i64 8, ptr %15) #7
  ret void
}