; Function Attrs: null_pointer_is_valid sspstrong uwtable
define internal fastcc void @attr_list2(ptr noundef readonly captures(none) %0, ptr noundef %1, i32 noundef %2, ptr noundef %3, i32 noundef %4, i32 noundef range(i32 1, 0) %5) unnamed_addr #0 {
  %7 = tail call ptr @proto_tree_add_item(ptr noundef %1, i32 noundef %2, ptr noundef %3, i32 noundef %4, i32 noundef %5, i32 noundef 0)
  %8 = load i32, ptr @ett_srvloc_attr, align 4
  %9 = tail call ptr @proto_item_add_subtree(ptr noundef %7, i32 noundef %8)
  %10 = getelementptr inbounds nuw i8, ptr %0, i64 408
  %11 = load ptr, ptr %10, align 8
  %12 = tail call ptr @tvb_get_string_enc(ptr noundef %11, ptr noundef %3, i32 noundef %4, i32 noundef %5, i32 noundef 0)
  br label %.outer

.outer:                                           ; preds = %14, %6
  %.043.ph = phi i32 [ %15, %14 ], [ 0, %6 ]
  %.041.ph = phi ptr [ %23, %14 ], [ %12, %6 ]
  %.0.ph = phi i32 [ %21, %14 ], [ %4, %6 ]
  br label %13

13:                                               ; preds = %.outer, %24
  %.047.in = phi ptr [ %27, %24 ], [ %.041.ph, %.outer ]
  %.045 = phi i32 [ %25, %24 ], [ 0, %.outer ]
  %.047 = load i8, ptr %.047.in, align 1
  switch i8 %.047, label %24 [
    i8 0, label %28
    i8 44, label %14
  ]

14:                                               ; preds = %13
  %15 = add i32 %.043.ph, 1
  %16 = zext i32 %.045 to i64
  %17 = getelementptr i8, ptr %.041.ph, i64 %16
  store i8 0, ptr %17, align 1
  %18 = load i32, ptr @hf_srvloc_item, align 4
  %19 = tail call ptr (ptr, i32, ptr, i32, i32, ptr, ptr, ...) @proto_tree_add_string_format(ptr noundef %9, i32 noundef %18, ptr noundef %3, i32 noundef %.0.ph, i32 noundef %.045, ptr noundef %.041.ph, ptr noundef nonnull @.str.284, i32 noundef %15, ptr noundef %.041.ph)
  %20 = add i32 %.045, 1
  %21 = add i32 %.0.ph, %20
  %22 = zext i32 %20 to i64
  %23 = getelementptr i8, ptr %.041.ph, i64 %22
  br label %.outer, !llvm.loop !20

24:                                               ; preds = %13
  %25 = add i32 %.045, 1
  %26 = zext i32 %25 to i64
  %27 = getelementptr i8, ptr %.041.ph, i64 %26
  br label %13, !llvm.loop !20

28:                                               ; preds = %13
  %.not49 = icmp eq i32 %.045, 0
  br i1 %.not49, label %33, label %29

29:                                               ; preds = %28
  %30 = add i32 %.043.ph, 1
  %31 = load i32, ptr @hf_srvloc_item, align 4
  %32 = tail call ptr (ptr, i32, ptr, i32, i32, ptr, ptr, ...) @proto_tree_add_string_format(ptr noundef %9, i32 noundef %31, ptr noundef %3, i32 noundef %.0.ph, i32 noundef %.045, ptr noundef %.041.ph, ptr noundef nonnull @.str.284, i32 noundef %30, ptr noundef %.041.ph)
  br label %33

33:                                               ; preds = %29, %28
  ret void
}